target datalayout = "e-m:e-p270:32:32-p271:32:32-p272:64:64-i64:64-i128:128-f80:128-n8:16:32:64-S128"
target triple = "x86_64-pc-linux-gnu"

%struct.AVCodecContext = type { ptr, i32, i32, ptr, i32, i32, ptr, ptr, ptr, i64, i32, i32, ptr, i32, %struct.AVRational, %struct.AVRational, %struct.AVRational, i32, i32, i32, i32, i32, %struct.AVRational, i32, i32, i32, i32, i32, i32, i32, i32, i32, i32, i32, ptr, ptr, i32, float, float, float, float, float, float, float, float, float, i32, i32, i32, i32, i32, i32, i32, i32, i32, i32, i32, i32, ptr, ptr, ptr, i32, i32, i32, i32, i32, i32, i32, i32, i32, i32, %struct.AVChannelLayout, i32, i32, i32, i32, i32, i32, i32, i32, ptr, i32, i32, i32, float, float, i32, i32, i32, i32, i32, ptr, i64, i64, float, float, i32, i32, ptr, ptr, i32, i32, i32, i32, i32, ptr, ptr, ptr, ptr, i32, i32, [8 x i64], i32, i32, i32, i32, i32, i32, i32, ptr, ptr, i32, i32, i32, i32, i32, i32, i32, i32, i32, i32, ptr, ptr, i32, i32, ptr, ptr, ptr, ptr, i32, i32, i64, i32, i32, i64, ptr, i64, ptr, i32, ptr, i32 }
%struct.AVRational = type { i32, i32 }
%struct.AVChannelLayout = type { i32, i32, %union.anon.0, ptr }
%union.anon.0 = type { i64 }
%struct.WavpackContext = type { ptr, ptr, i32, i32, i32, i32, ptr, ptr, ptr, ptr, i32 }
%union.AVRefStructOpaque = type { ptr }
%struct.DSDContext = type { [16 x i8], i32 }

; Function Attrs: inlinehint nounwind uwtable
define internal ptr @av_refstruct_alloc_ext(i64 noundef %0, i32 noundef %1, ptr noundef %2, ptr noundef %3) #4 {
  %5 = alloca i64, align 8
  %6 = alloca i32, align 4
  %7 = alloca ptr, align 8
  %8 = alloca ptr, align 8
  %9 = alloca %union.AVRefStructOpaque, align 8
  store i64 %0, ptr %5, align 8, !tbaa !63
  store i32 %1, ptr %6, align 4, !tbaa !51
  store ptr %2, ptr %7, align 8, !tbaa !64
  store ptr %3, ptr %8, align 8, !tbaa !64
  %10 = load i64, ptr %5, align 8, !tbaa !63
  %11 = load i32, ptr %6, align 4, !tbaa !51
  %12 = load ptr, ptr %7, align 8, !tbaa !64
  store ptr %12, ptr %9, align 8, !tbaa !53
  %13 = load ptr, ptr %8, align 8, !tbaa !64
  %14 = getelementptr inbounds nuw %union.AVRefStructOpaque, ptr %9, i32 0, i32 0
  %15 = load ptr, ptr %14, align 8
  %16 = call ptr @av_refstruct_alloc_ext_c(i64 noundef %10, i32 noundef %11, ptr %15, ptr noundef %13)
  ret ptr %16
}

; Function Attrs: inlinehint nounwind uwtable
define internal ptr @av_refstruct_allocz(i64 noundef %0) #4 {
  %2 = alloca i64, align 8
  store i64 %0, ptr %2, align 8, !tbaa !63
  %3 = load i64, ptr %2, align 8, !tbaa !63
  %4 = call ptr @av_refstruct_alloc_ext(i64 noundef %3, i32 noundef 0, ptr noundef null, ptr noundef null)
  ret ptr %4
}

; Function Attrs: nounwind uwtable
define internal i32 @wv_dsd_reset(ptr noundef %0, i32 noundef %1) #0 {
  %3 = alloca i32, align 4
  %4 = alloca ptr, align 8
  %5 = alloca i32, align 4
  %6 = alloca i32, align 4
  %7 = alloca i32, align 4
  store ptr %0, ptr %4, align 8, !tbaa !29
  store i32 %1, ptr %5, align 4, !tbaa !51
  call void @llvm.lifetime.start.p0(i64 4, ptr %6) #11
  %8 = load ptr, ptr %4, align 8, !tbaa !29
  %9 = getelementptr inbounds nuw %struct.WavpackContext, ptr %8, i32 0, i32 10
  store i32 0, ptr %9, align 8, !tbaa !38
  %10 = load ptr, ptr %4, align 8, !tbaa !29
  %11 = getelementptr inbounds nuw %struct.WavpackContext, ptr %10, i32 0, i32 6
  call void @av_refstruct_unref(ptr noundef %11)
  %12 = load ptr, ptr %4, align 8, !tbaa !29
  %13 = getelementptr inbounds nuw %struct.WavpackContext, ptr %12, i32 0, i32 7
  call void @av_refstruct_unref(ptr noundef %13)
  %14 = load ptr, ptr %4, align 8, !tbaa !29
  %15 = getelementptr inbounds nuw %struct.WavpackContext, ptr %14, i32 0, i32 8
  call void @av_refstruct_unref(ptr noundef %15)
  %16 = load i32, ptr %5, align 4, !tbaa !51
  %17 = icmp ne i32 %16, 0
  br i1 %17, label %19, label %18

18:                                               ; preds = %2
  store i32 0, ptr %3, align 4
  store i32 1, ptr %7, align 4
  br label %52

19:                                               ; preds = %2
  %20 = load i32, ptr %5, align 4, !tbaa !51
  %21 = sext i32 %20 to i64
  %22 = mul i64 %21, 20
  %23 = call ptr @av_refstruct_allocz(i64 noundef %22)
  %24 = load ptr, ptr %4, align 8, !tbaa !29
  %25 = getelementptr inbounds nuw %struct.WavpackContext, ptr %24, i32 0, i32 6
  store ptr %23, ptr %25, align 8, !tbaa !37
  %26 = load ptr, ptr %4, align 8, !tbaa !29
  %27 = getelementptr inbounds nuw %struct.WavpackContext, ptr %26, i32 0, i32 6
  %28 = load ptr, ptr %27, align 8, !tbaa !37
  %29 = icmp ne ptr %28, null
  br i1 %29, label %31, label %30

30:                                               ; preds = %19
  store i32 -12, ptr %3, align 4
  store i32 1, ptr %7, align 4
  br label %52

31:                                               ; preds = %19
  %32 = load i32, ptr %5, align 4, !tbaa !51
  %33 = load ptr, ptr %4, align 8, !tbaa !29
  %34 = getelementptr inbounds nuw %struct.WavpackContext, ptr %33, i32 0, i32 10
  store i32 %32, ptr %34, align 8, !tbaa !38
  store i32 0, ptr %6, align 4, !tbaa !51
  br label %35

35:                                               ; preds = %48, %31
  %36 = load i32, ptr %6, align 4, !tbaa !51
  %37 = load i32, ptr %5, align 4, !tbaa !51
  %38 = icmp slt i32 %36, %37
  br i1 %38, label %39, label %51

39:                                               ; preds = %35
  %40 = load ptr, ptr %4, align 8, !tbaa !29
  %41 = getelementptr inbounds nuw %struct.WavpackContext, ptr %40, i32 0, i32 6
  %42 = load ptr, ptr %41, align 8, !tbaa !37
  %43 = load i32, ptr %6, align 4, !tbaa !51
  %44 = sext i32 %43 to i64
  %45 = getelementptr inbounds %struct.DSDContext, ptr %42, i64 %44
  %46 = getelementptr inbounds nuw %struct.DSDContext, ptr %45, i32 0, i32 0
  %47 = getelementptr inbounds [16 x i8], ptr %46, i64 0, i64 0
  call void @llvm.memset.p0.i64(ptr align 4 %47, i8 105, i64 16, i1 false)
  br label %48

48:                                               ; preds = %39
  %49 = load i32, ptr %6, align 4, !tbaa !51
  %50 = add nsw i32 %49, 1
  store i32 %50, ptr %6, align 4, !tbaa !51
  br label %35, !llvm.loop !139

51:                                               ; preds = %35
  call void @ff_init_dsd_data()
  store i32 0, ptr %3, align 4
  store i32 1, ptr %7, align 4
  br label %52

52:                                               ; preds = %51, %30, %18
  call void @llvm.lifetime.end.p0(i64 4, ptr %6) #11
  %53 = load i32, ptr %3, align 4
  ret i32 %53
}

; Function Attrs: inlinehint nounwind uwtable
define internal void @av_refstruct_pool_uninit(ptr noundef %0) #4 {
  %2 = alloca ptr, align 8
  store ptr %0, ptr %2, align 8, !tbaa !191
  %3 = load ptr, ptr %2, align 8, !tbaa !191
  call void @av_refstruct_unref(ptr noundef %3)
  ret void
}

; Function Attrs: cold nounwind optsize uwtable
define internal i32 @wavpack_decode_end(ptr noundef %0) #1 {
  %2 = alloca ptr, align 8
  %3 = alloca ptr, align 8
  %4 = alloca i32, align 4
  store ptr %0, ptr %2, align 8, !tbaa !4
  call void @llvm.lifetime.start.p0(i64 8, ptr %3) #11
  %5 = load ptr, ptr %2, align 8, !tbaa !4
  %6 = getelementptr inbounds nuw %struct.AVCodecContext, ptr %5, i32 0, i32 6
  %7 = load ptr, ptr %6, align 8, !tbaa !9
  store ptr %7, ptr %3, align 8, !tbaa !29
  call void @llvm.lifetime.start.p0(i64 4, ptr %4) #11
  store i32 0, ptr %4, align 4, !tbaa !51
  br label %8

8:                                                ; preds = %22, %1
  %9 = load i32, ptr %4, align 4, !tbaa !51
  %10 = load ptr, ptr %3, align 8, !tbaa !29
  %11 = getelementptr inbounds nuw %struct.WavpackContext, ptr %10, i32 0, i32 2
  %12 = load i32, ptr %11, align 8, !tbaa !40
  %13 = icmp slt i32 %9, %12
  br i1 %13, label %15, label %14

14:                                               ; preds = %8
  call void @llvm.lifetime.end.p0(i64 4, ptr %4) #11
  br label %25

15:                                               ; preds = %8
  %16 = load ptr, ptr %3, align 8, !tbaa !29
  %17 = getelementptr inbounds nuw %struct.WavpackContext, ptr %16, i32 0, i32 1
  %18 = load ptr, ptr %17, align 8, !tbaa !61
  %19 = load i32, ptr %4, align 4, !tbaa !51
  %20 = sext i32 %19 to i64
  %21 = getelementptr inbounds ptr, ptr %18, i64 %20
  call void @av_freep(ptr noundef %21)
  br label %22

22:                                               ; preds = %15
  %23 = load i32, ptr %4, align 4, !tbaa !51
  %24 = add nsw i32 %23, 1
  store i32 %24, ptr %4, align 4, !tbaa !51
  br label %8, !llvm.loop !62

25:                                               ; preds = %14
  %26 = load ptr, ptr %3, align 8, !tbaa !29
  %27 = getelementptr inbounds nuw %struct.WavpackContext, ptr %26, i32 0, i32 1
  call void @av_freep(ptr noundef %27)
  %28 = load ptr, ptr %3, align 8, !tbaa !29
  %29 = getelementptr inbounds nuw %struct.WavpackContext, ptr %28, i32 0, i32 2
  store i32 0, ptr %29, align 8, !tbaa !40
  %30 = load ptr, ptr %3, align 8, !tbaa !29
  %31 = getelementptr inbounds nuw %struct.WavpackContext, ptr %30, i32 0, i32 9
  call void @av_refstruct_pool_uninit(ptr noundef %31)
  %32 = load ptr, ptr %3, align 8, !tbaa !29
  %33 = call i32 @wv_dsd_reset(ptr noundef %32, i32 noundef 0)
  call void @llvm.lifetime.end.p0(i64 8, ptr %3) #11
  ret i32 0
}