; Function Attrs: cold nounwind optsize uwtable
define internal noundef i32 @wavpack_decode_end(ptr noundef readonly captures(none) %0) #1 {
  %2 = getelementptr inbounds nuw i8, ptr %0, i64 32
  %3 = load ptr, ptr %2, align 8, !tbaa !4
  %4 = getelementptr inbounds nuw i8, ptr %3, i64 16
  %5 = load i32, ptr %4, align 8, !tbaa !37
  %6 = icmp sgt i32 %5, 0
  br i1 %6, label %.lr.ph, label %._crit_edge

.lr.ph:                                           ; preds = %1
  %7 = getelementptr inbounds nuw i8, ptr %3, i64 8
  br label %14

._crit_edge:                                      ; preds = %14, %1
  %8 = getelementptr inbounds nuw i8, ptr %3, i64 8
  tail call void @av_freep(ptr noundef nonnull %8) #12
  store i32 0, ptr %4, align 8, !tbaa !37
  %9 = getelementptr inbounds nuw i8, ptr %3, i64 56
  tail call void @av_refstruct_unref(ptr noundef nonnull %9) #12
  %10 = getelementptr inbounds nuw i8, ptr %3, i64 64
  store i32 0, ptr %10, align 8, !tbaa !35
  %11 = getelementptr inbounds nuw i8, ptr %3, i64 32
  tail call void @av_refstruct_unref(ptr noundef nonnull %11) #12
  %12 = getelementptr inbounds nuw i8, ptr %3, i64 40
  tail call void @av_refstruct_unref(ptr noundef nonnull %12) #12
  %13 = getelementptr inbounds nuw i8, ptr %3, i64 48
  tail call void @av_refstruct_unref(ptr noundef nonnull %13) #12
  ret i32 0

14:                                               ; preds = %.lr.ph, %14
  %indvars.iv = phi i64 [ 0, %.lr.ph ], [ %indvars.iv.next, %14 ]
  %15 = load ptr, ptr %7, align 8, !tbaa !46
  %16 = getelementptr inbounds nuw ptr, ptr %15, i64 %indvars.iv
  tail call void @av_freep(ptr noundef %16) #12
  %indvars.iv.next = add nuw nsw i64 %indvars.iv, 1
  %17 = load i32, ptr %4, align 8, !tbaa !37
  %18 = sext i32 %17 to i64
  %19 = icmp slt i64 %indvars.iv.next, %18
  br i1 %19, label %14, label %._crit_edge, !llvm.loop !119
}